target datalayout = "e-m:e-p270:32:32-p271:32:32-p272:64:64-i64:64-i128:128-f80:128-n8:16:32:64-S128"
target triple = "x86_64-pc-linux-gnu"

%struct.stat64 = type { i64, i64, i64, i32, i32, i32, i32, i64, i64, i64, i64, %struct.timespec, %struct.timespec, %struct.timespec, [3 x i64] }
%struct.timespec = type { i64, i64 }
%"class.base::File" = type <{ %"class.base::ScopedGeneric", [4 x i8], %"class.base::FilePath", [4 x i8], i32, i8, i8, [6 x i8] }>
%"class.base::ScopedGeneric" = type { %"struct.base::ScopedGeneric<int, base::internal::ScopedFDCloseTraits>::Data" }
%"struct.base::ScopedGeneric<int, base::internal::ScopedFDCloseTraits>::Data" = type { i32 }
%"class.base::FilePath" = type { %"class.std::__cxx11::basic_string" }
%"class.std::__cxx11::basic_string" = type { %"struct.std::__cxx11::basic_string<char>::_Alloc_hider", i64, %union.anon }
%"struct.std::__cxx11::basic_string<char>::_Alloc_hider" = type { ptr }
%union.anon = type { i64, [8 x i8] }
%"class.base::FileTracing::ScopedTrace" = type { ptr, ptr }

@.str.9 = private unnamed_addr constant [16 x i8] c"File::GetLength\00", align 1

; Function Attrs: mustprogress nounwind uwtable
define linkonce_odr void @_ZN4base18ThreadRestrictions15AssertIOAllowedEv() #4 comdat align 2 {
  ret void
}

; Function Attrs: mustprogress nounwind uwtable
define internal noundef i32 @_ZN4base12_GLOBAL__N_19CallFstatEiP6stat64(i32 noundef %0, ptr noundef %1) #4 {
  %3 = alloca i32, align 4
  %4 = alloca ptr, align 8
  store i32 %0, ptr %3, align 4, !tbaa !41
  store ptr %1, ptr %4, align 8, !tbaa !8
  call void @_ZN4base18ThreadRestrictions15AssertIOAllowedEv()
  %5 = load i32, ptr %3, align 4, !tbaa !41
  %6 = load ptr, ptr %4, align 8, !tbaa !8
  %7 = call i32 @fstat64(i32 noundef %5, ptr noundef %6) #14
  ret i32 %7
}

; Function Attrs: mustprogress nounwind uwtable
define linkonce_odr noundef nonnull align 4 dereferenceable(4) ptr @_ZNK4base13ScopedGenericIiNS_8internal19ScopedFDCloseTraitsEE3getEv(ptr noundef nonnull align 4 dereferenceable(4) %0) #4 comdat align 2 {
  %2 = alloca ptr, align 8
  store ptr %0, ptr %2, align 8, !tbaa !36
  %3 = load ptr, ptr %2, align 8
  %4 = getelementptr inbounds nuw %"class.base::ScopedGeneric", ptr %3, i32 0, i32 0
  %5 = getelementptr inbounds nuw %"struct.base::ScopedGeneric<int, base::internal::ScopedFDCloseTraits>::Data", ptr %4, i32 0, i32 0
  ret ptr %5
}

; Function Attrs: mustprogress uwtable
define noundef i64 @_ZN4base4File9GetLengthEv(ptr noundef nonnull align 8 dereferenceable(50) %0) #0 align 2 personality ptr @__gxx_personality_v0 {
  %2 = alloca i64, align 8
  %3 = alloca ptr, align 8
  %4 = alloca %"class.base::FileTracing::ScopedTrace", align 8
  %5 = alloca ptr, align 8
  %6 = alloca i32, align 4
  %7 = alloca %struct.stat64, align 8
  %8 = alloca i32, align 4
  store ptr %0, ptr %3, align 8, !tbaa !34
  %9 = load ptr, ptr %3, align 8
  call void @llvm.lifetime.start.p0(i64 16, ptr %4) #14
  call void @_ZN4base11FileTracing11ScopedTraceC1Ev(ptr noundef nonnull align 8 dereferenceable(16) %4)
  %10 = invoke noundef zeroext i1 @_ZN4base11FileTracing17IsCategoryEnabledEv()
          to label %11 unwind label %14

11:                                               ; preds = %1
  br i1 %10, label %12, label %18

12:                                               ; preds = %11
  invoke void @_ZN4base11FileTracing11ScopedTrace10InitializeEPKcPKNS_4FileEl(ptr noundef nonnull align 8 dereferenceable(16) %4, ptr noundef @.str.9, ptr noundef %9, i64 noundef 0)
          to label %13 unwind label %14

13:                                               ; preds = %12
  br label %18

14:                                               ; preds = %12, %1
  %15 = landingpad { ptr, i32 }
          cleanup
  %16 = extractvalue { ptr, i32 } %15, 0
  store ptr %16, ptr %5, align 8
  %17 = extractvalue { ptr, i32 } %15, 1
  store i32 %17, ptr %6, align 4
  br label %36

18:                                               ; preds = %13, %11
  call void @llvm.lifetime.start.p0(i64 144, ptr %7) #14
  %19 = getelementptr inbounds nuw %"class.base::File", ptr %9, i32 0, i32 0
  %20 = invoke noundef nonnull align 4 dereferenceable(4) ptr @_ZNK4base13ScopedGenericIiNS_8internal19ScopedFDCloseTraitsEE3getEv(ptr noundef nonnull align 4 dereferenceable(4) %19)
          to label %21 unwind label %27

21:                                               ; preds = %18
  %22 = load i32, ptr %20, align 4, !tbaa !41
  %23 = invoke noundef i32 @_ZN4base12_GLOBAL__N_19CallFstatEiP6stat64(i32 noundef %22, ptr noundef %7)
          to label %24 unwind label %27

24:                                               ; preds = %21
  %25 = icmp ne i32 %23, 0
  br i1 %25, label %26, label %31

26:                                               ; preds = %24
  store i64 0, ptr %2, align 8
  store i32 1, ptr %8, align 4
  br label %34

27:                                               ; preds = %21, %18
  %28 = landingpad { ptr, i32 }
          cleanup
  %29 = extractvalue { ptr, i32 } %28, 0
  store ptr %29, ptr %5, align 8
  %30 = extractvalue { ptr, i32 } %28, 1
  store i32 %30, ptr %6, align 4
  call void @llvm.lifetime.end.p0(i64 144, ptr %7) #14
  br label %36

31:                                               ; preds = %24
  %32 = getelementptr inbounds nuw %struct.stat64, ptr %7, i32 0, i32 8
  %33 = load i64, ptr %32, align 8, !tbaa !21
  store i64 %33, ptr %2, align 8
  store i32 1, ptr %8, align 4
  br label %34

34:                                               ; preds = %31, %26
  call void @llvm.lifetime.end.p0(i64 144, ptr %7) #14
  call void @_ZN4base11FileTracing11ScopedTraceD1Ev(ptr noundef nonnull align 8 dereferenceable(16) %4) #14
  call void @llvm.lifetime.end.p0(i64 16, ptr %4) #14
  %35 = load i64, ptr %2, align 8
  ret i64 %35

36:                                               ; preds = %27, %14
  call void @_ZN4base11FileTracing11ScopedTraceD1Ev(ptr noundef nonnull align 8 dereferenceable(16) %4) #14
  call void @llvm.lifetime.end.p0(i64 16, ptr %4) #14
  br label %37

37:                                               ; preds = %36
  %38 = load ptr, ptr %5, align 8
  %39 = load i32, ptr %6, align 4
  %40 = insertvalue { ptr, i32 } poison, ptr %38, 0
  %41 = insertvalue { ptr, i32 } %40, i32 %39, 1
  resume { ptr, i32 } %41
}