; Function Attrs: mustprogress uwtable
define noundef i64 @_ZN4base4File9GetLengthEv(ptr noundef nonnull align 8 dereferenceable(50) %0) local_unnamed_addr #0 align 2 personality ptr @__gxx_personality_v0 {
  %2 = alloca %"class.base::FileTracing::ScopedTrace", align 8
  %3 = alloca %struct.stat64, align 8
  call void @llvm.lifetime.start.p0(i64 16, ptr nonnull %2) #14
  call void @_ZN4base11FileTracing11ScopedTraceC1Ev(ptr noundef nonnull align 8 dereferenceable(16) %2)
  %4 = invoke noundef zeroext i1 @_ZN4base11FileTracing17IsCategoryEnabledEv()
          to label %5 unwind label %7

5:                                                ; preds = %1
  br i1 %4, label %6, label %9

6:                                                ; preds = %5
  invoke void @_ZN4base11FileTracing11ScopedTrace10InitializeEPKcPKNS_4FileEl(ptr noundef nonnull align 8 dereferenceable(16) %2, ptr noundef nonnull @.str.9, ptr noundef nonnull %0, i64 noundef 0)
          to label %9 unwind label %7

7:                                                ; preds = %6, %1
  %8 = landingpad { ptr, i32 }
          cleanup
  call void @_ZN4base11FileTracing11ScopedTraceD1Ev(ptr noundef nonnull align 8 dereferenceable(16) %2) #14
  call void @llvm.lifetime.end.p0(i64 16, ptr nonnull %2) #14
  resume { ptr, i32 } %8

9:                                                ; preds = %6, %5
  call void @llvm.lifetime.start.p0(i64 144, ptr nonnull %3) #14
  %10 = load i32, ptr %0, align 8, !tbaa !27
  %11 = call noundef i32 @fstat64(i32 noundef %10, ptr noundef nonnull %3) #14
  %.not = icmp eq i32 %11, 0
  %12 = getelementptr inbounds nuw i8, ptr %3, i64 48
  %13 = load i64, ptr %12, align 8
  %.0 = select i1 %.not, i64 %13, i64 0
  call void @llvm.lifetime.end.p0(i64 144, ptr nonnull %3) #14
  call void @_ZN4base11FileTracing11ScopedTraceD1Ev(ptr noundef nonnull align 8 dereferenceable(16) %2) #14
  call void @llvm.lifetime.end.p0(i64 16, ptr nonnull %2) #14
  ret i64 %.0
}